; Function Attrs: mustprogress nounwind uwtable
define dso_local void @_ZN4llvm14MachineOperand8setIsDefEb(ptr noundef nonnull align 8 dereferenceable(32) %0, i1 noundef zeroext %1) local_unnamed_addr #0 align 2 {
  %3 = load i32, ptr %0, align 8
  %4 = and i32 %3, 16777216
  %5 = icmp eq i32 %4, 0
  %6 = xor i1 %1, %5
  br i1 %6, label %25, label %7

7:                                                ; preds = %2
  %8 = getelementptr inbounds nuw i8, ptr %0, i64 8
  %.val = load ptr, ptr %8, align 8
  %.not.i.i = icmp eq ptr %.val, null
  br i1 %.not.i.i, label %21, label %9

9:                                                ; preds = %7
  %10 = getelementptr inbounds nuw i8, ptr %.val, i64 24
  %11 = load ptr, ptr %10, align 8
  %.not11.i.i = icmp eq ptr %11, null
  br i1 %.not11.i.i, label %21, label %12

12:                                               ; preds = %9
  %13 = getelementptr inbounds nuw i8, ptr %11, i64 32
  %14 = load ptr, ptr %13, align 8
  %.not12.i.i = icmp eq ptr %14, null
  br i1 %.not12.i.i, label %21, label %_ZL16getMFIfAvailableRN4llvm14MachineOperandE.exit

_ZL16getMFIfAvailableRN4llvm14MachineOperandE.exit: ; preds = %12
  %15 = getelementptr inbounds nuw i8, ptr %14, i64 32
  %16 = load ptr, ptr %15, align 8
  tail call void @_ZN4llvm19MachineRegisterInfo27removeRegOperandFromUseListEPNS_14MachineOperandE(ptr noundef nonnull align 8 dereferenceable(512) %16, ptr noundef nonnull %0) #21
  %17 = load i32, ptr %0, align 8
  %18 = select i1 %1, i32 16777216, i32 0
  %19 = and i32 %17, -16777217
  %20 = or disjoint i32 %19, %18
  store i32 %20, ptr %0, align 8
  tail call void @_ZN4llvm19MachineRegisterInfo22addRegOperandToUseListEPNS_14MachineOperandE(ptr noundef nonnull align 8 dereferenceable(512) %16, ptr noundef nonnull %0) #21
  br label %25

21:                                               ; preds = %7, %9, %12
  %22 = select i1 %1, i32 16777216, i32 0
  %23 = and i32 %3, -16777217
  %24 = or disjoint i32 %23, %22
  store i32 %24, ptr %0, align 8
  br label %25

25:                                               ; preds = %2, %21, %_ZL16getMFIfAvailableRN4llvm14MachineOperandE.exit
  ret void
}